target datalayout = "e-m:e-p270:32:32-p271:32:32-p272:64:64-i64:64-i128:128-f80:128-n8:16:32:64-S128"
target triple = "x86_64-pc-linux-gnu"

%struct.UToolMemory = type { [64 x i8], i32, i32, i32, i32, ptr, [8 x i8], [1 x i8], [15 x i8] }

; Function Attrs: mustprogress uwtable
define ptr @utm_alloc(ptr noundef %0) #1 {
  %2 = alloca ptr, align 8
  %3 = alloca ptr, align 8
  %4 = alloca i32, align 4
  %5 = alloca i32, align 4
  store ptr %0, ptr %2, align 8, !tbaa !55
  call void @llvm.lifetime.start.p0(i64 8, ptr %3) #14
  store ptr null, ptr %3, align 8, !tbaa !44
  call void @llvm.lifetime.start.p0(i64 4, ptr %4) #14
  %6 = load ptr, ptr %2, align 8, !tbaa !55
  %7 = getelementptr inbounds nuw %struct.UToolMemory, ptr %6, i32 0, i32 4
  %8 = load i32, ptr %7, align 4, !tbaa !62
  store i32 %8, ptr %4, align 4, !tbaa !22
  call void @llvm.lifetime.start.p0(i64 4, ptr %5) #14
  %9 = load i32, ptr %4, align 4, !tbaa !22
  %10 = add nsw i32 %9, 1
  store i32 %10, ptr %5, align 4, !tbaa !22
  %11 = load ptr, ptr %2, align 8, !tbaa !55
  %12 = load i32, ptr %5, align 4, !tbaa !22
  %13 = call noundef signext i8 @_ZL15utm_hasCapacityP11UToolMemoryi(ptr noundef %11, i32 noundef %12)
  %14 = icmp ne i8 %13, 0
  br i1 %14, label %15, label %34

15:                                               ; preds = %1
  %16 = load ptr, ptr %2, align 8, !tbaa !55
  %17 = getelementptr inbounds nuw %struct.UToolMemory, ptr %16, i32 0, i32 5
  %18 = load ptr, ptr %17, align 16, !tbaa !57
  %19 = load i32, ptr %4, align 4, !tbaa !22
  %20 = load ptr, ptr %2, align 8, !tbaa !55
  %21 = getelementptr inbounds nuw %struct.UToolMemory, ptr %20, i32 0, i32 3
  %22 = load i32, ptr %21, align 8, !tbaa !61
  %23 = mul nsw i32 %19, %22
  %24 = sext i32 %23 to i64
  %25 = getelementptr inbounds i8, ptr %18, i64 %24
  store ptr %25, ptr %3, align 8, !tbaa !44
  %26 = load i32, ptr %5, align 4, !tbaa !22
  %27 = load ptr, ptr %2, align 8, !tbaa !55
  %28 = getelementptr inbounds nuw %struct.UToolMemory, ptr %27, i32 0, i32 4
  store i32 %26, ptr %28, align 4, !tbaa !62
  %29 = load ptr, ptr %3, align 8, !tbaa !44
  %30 = load ptr, ptr %2, align 8, !tbaa !55
  %31 = getelementptr inbounds nuw %struct.UToolMemory, ptr %30, i32 0, i32 3
  %32 = load i32, ptr %31, align 8, !tbaa !61
  %33 = sext i32 %32 to i64
  call void @llvm.memset.p0.i64(ptr align 1 %29, i8 0, i64 %33, i1 false)
  br label %34

34:                                               ; preds = %15, %1
  %35 = load ptr, ptr %3, align 8, !tbaa !44
  call void @llvm.lifetime.end.p0(i64 4, ptr %5) #14
  call void @llvm.lifetime.end.p0(i64 4, ptr %4) #14
  call void @llvm.lifetime.end.p0(i64 8, ptr %3) #14
  ret ptr %35
}