; Function Attrs: mustprogress uwtable
define ptr @utm_alloc(ptr noundef %0) local_unnamed_addr #8 {
  %2 = getelementptr inbounds nuw i8, ptr %0, i64 76
  %3 = load i32, ptr %2, align 4, !tbaa !41
  %4 = add nsw i32 %3, 1
  tail call fastcc void @_ZL15utm_hasCapacityP11UToolMemoryi(ptr noundef %0, i32 noundef %4)
  %5 = getelementptr inbounds nuw i8, ptr %0, i64 80
  %6 = load ptr, ptr %5, align 16, !tbaa !36
  %7 = getelementptr inbounds nuw i8, ptr %0, i64 72
  %8 = load i32, ptr %7, align 8, !tbaa !40
  %9 = mul nsw i32 %8, %3
  %10 = sext i32 %9 to i64
  %11 = getelementptr inbounds i8, ptr %6, i64 %10
  store i32 %4, ptr %2, align 4, !tbaa !41
  %12 = sext i32 %8 to i64
  tail call void @llvm.memset.p0.i64(ptr align 1 %11, i8 0, i64 %12, i1 false)
  ret ptr %11
}